target datalayout = "e-m:e-p270:32:32-p271:32:32-p272:64:64-i64:64-i128:128-f80:128-n8:16:32:64-S128"
target triple = "x86_64-unknown-linux-gnu"

; Function Attrs: mustprogress uwtable
define hidden noundef zeroext i1 @_ZNK3nla11nex_creator13gt_on_mul_mulERKNS_7nex_mulES3_(ptr noundef nonnull align 8 dereferenceable(176) %this, ptr noundef nonnull align 8 dereferenceable(48) %a, ptr noundef nonnull align 8 dereferenceable(48) %b) #4 align 2 {
entry:
  %this.addr = alloca ptr, align 8
  %a.addr = alloca ptr, align 8
  %b.addr = alloca ptr, align 8
  %a_deg = alloca i32, align 4
  %b_deg = alloca i32, align 4
  store ptr %this, ptr %this.addr, align 8
  store ptr %a, ptr %a.addr, align 8
  store ptr %b, ptr %b.addr, align 8
  %this1 = load ptr, ptr %this.addr, align 8
  %0 = load ptr, ptr %a.addr, align 8
  %vtable = load ptr, ptr %0, align 8
  %vfn = getelementptr inbounds ptr, ptr %vtable, i64 11
  %1 = load ptr, ptr %vfn, align 8
  %call = call noundef i32 %1(ptr noundef nonnull align 8 dereferenceable(48) %0)
  store i32 %call, ptr %a_deg, align 4
  %2 = load ptr, ptr %b.addr, align 8
  %vtable2 = load ptr, ptr %2, align 8
  %vfn3 = getelementptr inbounds ptr, ptr %vtable2, i64 11
  %3 = load ptr, ptr %vfn3, align 8
  %call4 = call noundef i32 %3(ptr noundef nonnull align 8 dereferenceable(48) %2)
  store i32 %call4, ptr %b_deg, align 4
  %4 = load i32, ptr %a_deg, align 4
  %5 = load i32, ptr %b_deg, align 4
  %cmp = icmp eq i32 %4, %5
  br i1 %cmp, label %cond.true, label %cond.false

cond.true:                                        ; preds = %entry
  %6 = load ptr, ptr %a.addr, align 8
  %7 = load ptr, ptr %b.addr, align 8
  %call5 = call noundef zeroext i1 @_ZNK3nla11nex_creator28gt_on_powers_mul_same_degreeINS_7nex_mulEEEbRKT_RKS2_(ptr noundef nonnull align 8 dereferenceable(176) %this1, ptr noundef nonnull align 8 dereferenceable(48) %6, ptr noundef nonnull align 8 dereferenceable(48) %7)
  br label %cond.end

cond.false:                                       ; preds = %entry
  %8 = load i32, ptr %a_deg, align 4
  %9 = load i32, ptr %b_deg, align 4
  %cmp6 = icmp ugt i32 %8, %9
  br label %cond.end

cond.end:                                         ; preds = %cond.false, %cond.true
  %cond = phi i1 [ %call5, %cond.true ], [ %cmp6, %cond.false ]
  ret i1 %cond
}