; Function Attrs: mustprogress uwtable
define hidden noundef zeroext i1 @_ZNK3nla11nex_creator13gt_on_mul_mulERKNS_7nex_mulES3_(ptr noundef nonnull align 8 dereferenceable(176) %this, ptr noundef nonnull align 8 dereferenceable(48) %a, ptr noundef nonnull align 8 dereferenceable(48) %b) local_unnamed_addr #3 align 2 {
entry:
  %vtable = load ptr, ptr %a, align 8
  %vfn = getelementptr inbounds i8, ptr %vtable, i64 88
  %0 = load ptr, ptr %vfn, align 8
  %call = tail call noundef i32 %0(ptr noundef nonnull align 8 dereferenceable(48) %a)
  %vtable2 = load ptr, ptr %b, align 8
  %vfn3 = getelementptr inbounds i8, ptr %vtable2, i64 88
  %1 = load ptr, ptr %vfn3, align 8
  %call4 = tail call noundef i32 %1(ptr noundef nonnull align 8 dereferenceable(48) %b)
  %cmp = icmp eq i32 %call, %call4
  br i1 %cmp, label %cond.true, label %cond.false

cond.true:                                        ; preds = %entry
  %call5 = tail call noundef zeroext i1 @_ZNK3nla11nex_creator28gt_on_powers_mul_same_degreeINS_7nex_mulEEEbRKT_RKS2_(ptr noundef nonnull align 8 dereferenceable(176) %this, ptr noundef nonnull align 8 dereferenceable(48) %a, ptr noundef nonnull align 8 dereferenceable(48) %b)
  br label %cond.end

cond.false:                                       ; preds = %entry
  %cmp6 = icmp ugt i32 %call, %call4
  br label %cond.end

cond.end:                                         ; preds = %cond.false, %cond.true
  %cond = phi i1 [ %call5, %cond.true ], [ %cmp6, %cond.false ]
  ret i1 %cond
}